target datalayout = "e-m:e-p270:32:32-p271:32:32-p272:64:64-i64:64-i128:128-f80:128-n8:16:32:64-S128"
target triple = "x86_64-unknown-linux-gnu"

%"struct.std::atomic.85" = type { %"struct.std::__atomic_base.86" }
%"struct.std::__atomic_base.86" = type { i8 }
%class.z3_log_ctx = type { i8 }

@_ZTI12z3_exception = external constant ptr
@g_z3_log_enabled = external global %"struct.std::atomic.85", align 1

; Function Attrs: mustprogress nounwind uwtable
define linkonce_odr noundef i32 @_ZStanSt12memory_orderSt23__memory_order_modifier(i32 noundef %__m, i32 noundef %__mod) #5 comdat {
entry:
  %__m.addr = alloca i32, align 4
  %__mod.addr = alloca i32, align 4
  store i32 %__m, ptr %__m.addr, align 4
  store i32 %__mod, ptr %__mod.addr, align 4
  %0 = load i32, ptr %__m.addr, align 4
  %1 = load i32, ptr %__mod.addr, align 4
  %and = and i32 %0, %1
  ret i32 %and
}

; Function Attrs: mustprogress nounwind uwtable
define linkonce_odr hidden noundef zeroext i1 @_ZNSt13__atomic_baseIbEaSEb(ptr noundef nonnull align 1 dereferenceable(1) %this, i1 noundef zeroext %__i) #5 comdat align 2 personality ptr @__gxx_personality_v0 {
entry:
  %this.addr.i = alloca ptr, align 8
  %__i.addr.i = alloca i8, align 1
  %__m.addr.i = alloca i32, align 4
  %__b.i = alloca i32, align 4
  %.atomictmp.i = alloca i8, align 1
  %this.addr = alloca ptr, align 8
  %__i.addr = alloca i8, align 1
  store ptr %this, ptr %this.addr, align 8
  %frombool = zext i1 %__i to i8
  store i8 %frombool, ptr %__i.addr, align 1
  %this1 = load ptr, ptr %this.addr, align 8
  %0 = load i8, ptr %__i.addr, align 1
  %tobool = trunc i8 %0 to i1
  store ptr %this1, ptr %this.addr.i, align 8
  %frombool.i = zext i1 %tobool to i8
  store i8 %frombool.i, ptr %__i.addr.i, align 1
  store i32 5, ptr %__m.addr.i, align 4
  %this1.i = load ptr, ptr %this.addr.i, align 8
  %1 = load i32, ptr %__m.addr.i, align 4
  %call.i = invoke noundef i32 @_ZStanSt12memory_orderSt23__memory_order_modifier(i32 noundef %1, i32 noundef 65535)
          to label %invoke.cont.i unwind label %terminate.lpad.i

invoke.cont.i:                                    ; preds = %entry
  store i32 %call.i, ptr %__b.i, align 4
  %2 = load i32, ptr %__m.addr.i, align 4
  %3 = load i8, ptr %__i.addr.i, align 1
  %tobool.i = trunc i8 %3 to i1
  %frombool8.i = zext i1 %tobool.i to i8
  store i8 %frombool8.i, ptr %.atomictmp.i, align 1
  switch i32 %2, label %monotonic.i [
    i32 3, label %release.i
    i32 5, label %seqcst.i
  ]

monotonic.i:                                      ; preds = %invoke.cont.i
  %4 = load i8, ptr %.atomictmp.i, align 1
  store atomic i8 %4, ptr %this1.i monotonic, align 1
  br label %_ZNSt13__atomic_baseIbE5storeEbSt12memory_order.exit

release.i:                                        ; preds = %invoke.cont.i
  %5 = load i8, ptr %.atomictmp.i, align 1
  store atomic i8 %5, ptr %this1.i release, align 1
  br label %_ZNSt13__atomic_baseIbE5storeEbSt12memory_order.exit

seqcst.i:                                         ; preds = %invoke.cont.i
  %6 = load i8, ptr %.atomictmp.i, align 1
  store atomic i8 %6, ptr %this1.i seq_cst, align 1
  br label %_ZNSt13__atomic_baseIbE5storeEbSt12memory_order.exit

terminate.lpad.i:                                 ; preds = %entry
  %7 = landingpad { ptr, i32 }
          catch ptr null
  %8 = extractvalue { ptr, i32 } %7, 0
  call void @__clang_call_terminate(ptr %8) #15
  unreachable

_ZNSt13__atomic_baseIbE5storeEbSt12memory_order.exit: ; preds = %seqcst.i, %release.i, %monotonic.i
  %9 = load i8, ptr %__i.addr, align 1
  %tobool2 = trunc i8 %9 to i1
  ret i1 %tobool2
}

; Function Attrs: mustprogress nounwind uwtable
define linkonce_odr hidden noundef zeroext i1 @_ZNSt6atomicIbEaSEb(ptr noundef nonnull align 1 dereferenceable(1) %this, i1 noundef zeroext %__i) #5 comdat align 2 {
entry:
  %this.addr = alloca ptr, align 8
  %__i.addr = alloca i8, align 1
  store ptr %this, ptr %this.addr, align 8
  %frombool = zext i1 %__i to i8
  store i8 %frombool, ptr %__i.addr, align 1
  %this1 = load ptr, ptr %this.addr, align 8
  %_M_base = getelementptr inbounds %"struct.std::atomic.85", ptr %this1, i32 0, i32 0
  %0 = load i8, ptr %__i.addr, align 1
  %tobool = trunc i8 %0 to i1
  %call = call noundef zeroext i1 @_ZNSt13__atomic_baseIbEaSEb(ptr noundef nonnull align 1 dereferenceable(1) %_M_base, i1 noundef zeroext %tobool) #3
  ret i1 %call
}

; Function Attrs: mustprogress nounwind uwtable
define linkonce_odr hidden noundef zeroext i1 @_ZNSt6atomicIbE8exchangeEbSt12memory_order(ptr noundef nonnull align 1 dereferenceable(1) %this, i1 noundef zeroext %__i, i32 noundef %__m) #5 comdat align 2 {
entry:
  %this.addr.i = alloca ptr, align 8
  %__i.addr.i = alloca i8, align 1
  %__m.addr.i = alloca i32, align 4
  %.atomictmp.i = alloca i8, align 1
  %atomic-temp.i = alloca i8, align 1
  %this.addr = alloca ptr, align 8
  %__i.addr = alloca i8, align 1
  %__m.addr = alloca i32, align 4
  store ptr %this, ptr %this.addr, align 8
  %frombool = zext i1 %__i to i8
  store i8 %frombool, ptr %__i.addr, align 1
  store i32 %__m, ptr %__m.addr, align 4
  %this1 = load ptr, ptr %this.addr, align 8
  %_M_base = getelementptr inbounds %"struct.std::atomic.85", ptr %this1, i32 0, i32 0
  %0 = load i8, ptr %__i.addr, align 1
  %tobool = trunc i8 %0 to i1
  %1 = load i32, ptr %__m.addr, align 4
  store ptr %_M_base, ptr %this.addr.i, align 8
  %frombool.i = zext i1 %tobool to i8
  store i8 %frombool.i, ptr %__i.addr.i, align 1
  store i32 %1, ptr %__m.addr.i, align 4
  %this1.i = load ptr, ptr %this.addr.i, align 8
  %2 = load i32, ptr %__m.addr.i, align 4
  %3 = load i8, ptr %__i.addr.i, align 1
  %tobool.i = trunc i8 %3 to i1
  %frombool2.i = zext i1 %tobool.i to i8
  store i8 %frombool2.i, ptr %.atomictmp.i, align 1
  switch i32 %2, label %monotonic.i [
    i32 1, label %acquire.i
    i32 2, label %acquire.i
    i32 3, label %release.i
    i32 4, label %acqrel.i
    i32 5, label %seqcst.i
  ]

monotonic.i:                                      ; preds = %entry
  %4 = load i8, ptr %.atomictmp.i, align 1
  %5 = atomicrmw xchg ptr %this1.i, i8 %4 monotonic, align 1
  store i8 %5, ptr %atomic-temp.i, align 1
  br label %_ZNSt13__atomic_baseIbE8exchangeEbSt12memory_order.exit

acquire.i:                                        ; preds = %entry, %entry
  %6 = load i8, ptr %.atomictmp.i, align 1
  %7 = atomicrmw xchg ptr %this1.i, i8 %6 acquire, align 1
  store i8 %7, ptr %atomic-temp.i, align 1
  br label %_ZNSt13__atomic_baseIbE8exchangeEbSt12memory_order.exit

release.i:                                        ; preds = %entry
  %8 = load i8, ptr %.atomictmp.i, align 1
  %9 = atomicrmw xchg ptr %this1.i, i8 %8 release, align 1
  store i8 %9, ptr %atomic-temp.i, align 1
  br label %_ZNSt13__atomic_baseIbE8exchangeEbSt12memory_order.exit

acqrel.i:                                         ; preds = %entry
  %10 = load i8, ptr %.atomictmp.i, align 1
  %11 = atomicrmw xchg ptr %this1.i, i8 %10 acq_rel, align 1
  store i8 %11, ptr %atomic-temp.i, align 1
  br label %_ZNSt13__atomic_baseIbE8exchangeEbSt12memory_order.exit

seqcst.i:                                         ; preds = %entry
  %12 = load i8, ptr %.atomictmp.i, align 1
  %13 = atomicrmw xchg ptr %this1.i, i8 %12 seq_cst, align 1
  store i8 %13, ptr %atomic-temp.i, align 1
  br label %_ZNSt13__atomic_baseIbE8exchangeEbSt12memory_order.exit

_ZNSt13__atomic_baseIbE8exchangeEbSt12memory_order.exit: ; preds = %seqcst.i, %acqrel.i, %release.i, %acquire.i, %monotonic.i
  %14 = load i8, ptr %atomic-temp.i, align 1
  %tobool3.i = trunc i8 %14 to i1
  ret i1 %tobool3.i
}

; Function Attrs: mustprogress nounwind uwtable
define linkonce_odr hidden noundef ptr @_Z13to_simplifierP14_Z3_simplifier(ptr noundef %g) #5 comdat {
entry:
  %g.addr = alloca ptr, align 8
  store ptr %g, ptr %g.addr, align 8
  %0 = load ptr, ptr %g.addr, align 8
  ret ptr %0
}

; Function Attrs: mustprogress nounwind uwtable
define linkonce_odr hidden noundef ptr @_Z4mk_cP11_Z3_context(ptr noundef %c) #5 comdat {
entry:
  %c.addr = alloca ptr, align 8
  store ptr %c, ptr %c.addr, align 8
  %0 = load ptr, ptr %c.addr, align 8
  ret ptr %0
}

; Function Attrs: mustprogress nounwind uwtable
define linkonce_odr hidden void @_ZN10z3_log_ctxD2Ev(ptr noundef nonnull align 1 dereferenceable(1) %this) unnamed_addr #5 comdat align 2 {
entry:
  %this.addr = alloca ptr, align 8
  store ptr %this, ptr %this.addr, align 8
  %this1 = load ptr, ptr %this.addr, align 8
  %m_prev = getelementptr inbounds %class.z3_log_ctx, ptr %this1, i32 0, i32 0
  %0 = load i8, ptr %m_prev, align 1
  %tobool = trunc i8 %0 to i1
  br i1 %tobool, label %if.then, label %if.end

if.then:                                          ; preds = %entry
  %call = call noundef zeroext i1 @_ZNSt6atomicIbEaSEb(ptr noundef nonnull align 1 dereferenceable(1) @g_z3_log_enabled, i1 noundef zeroext true) #3
  br label %if.end

if.end:                                           ; preds = %if.then, %entry
  ret void
}

; Function Attrs: mustprogress nounwind uwtable
define linkonce_odr hidden noundef zeroext i1 @_ZNK10z3_log_ctx7enabledEv(ptr noundef nonnull align 1 dereferenceable(1) %this) #5 comdat align 2 {
entry:
  %this.addr = alloca ptr, align 8
  store ptr %this, ptr %this.addr, align 8
  %this1 = load ptr, ptr %this.addr, align 8
  %m_prev = getelementptr inbounds %class.z3_log_ctx, ptr %this1, i32 0, i32 0
  %0 = load i8, ptr %m_prev, align 1
  %tobool = trunc i8 %0 to i1
  ret i1 %tobool
}

; Function Attrs: mustprogress nounwind uwtable
define linkonce_odr hidden void @_ZN10z3_log_ctxC2Ev(ptr noundef nonnull align 1 dereferenceable(1) %this) unnamed_addr #5 comdat align 2 {
entry:
  %this.addr = alloca ptr, align 8
  store ptr %this, ptr %this.addr, align 8
  %this1 = load ptr, ptr %this.addr, align 8
  %call = call noundef zeroext i1 @_ZNSt6atomicIbE8exchangeEbSt12memory_order(ptr noundef nonnull align 1 dereferenceable(1) @g_z3_log_enabled, i1 noundef zeroext false, i32 noundef 5) #3
  %m_prev = getelementptr inbounds %class.z3_log_ctx, ptr %this1, i32 0, i32 0
  %frombool = zext i1 %call to i8
  store i8 %frombool, ptr %m_prev, align 1
  ret void
}

; Function Attrs: mustprogress uwtable
define void @Z3_simplifier_dec_ref(ptr noundef %c, ptr noundef %t) #4 personality ptr @__gxx_personality_v0 {
entry:
  %c.addr = alloca ptr, align 8
  %t.addr = alloca ptr, align 8
  %_LOG_CTX = alloca %class.z3_log_ctx, align 1
  %exn.slot = alloca ptr, align 8
  %ehselector.slot = alloca i32, align 4
  %ex = alloca ptr, align 8
  store ptr %c, ptr %c.addr, align 8
  store ptr %t, ptr %t.addr, align 8
  invoke void @_ZN10z3_log_ctxC2Ev(ptr noundef nonnull align 1 dereferenceable(1) %_LOG_CTX)
          to label %invoke.cont unwind label %lpad

invoke.cont:                                      ; preds = %entry
  %call = invoke noundef zeroext i1 @_ZNK10z3_log_ctx7enabledEv(ptr noundef nonnull align 1 dereferenceable(1) %_LOG_CTX)
          to label %invoke.cont2 unwind label %lpad1

invoke.cont2:                                     ; preds = %invoke.cont
  br i1 %call, label %if.then, label %if.end

if.then:                                          ; preds = %invoke.cont2
  %0 = load ptr, ptr %c.addr, align 8
  %1 = load ptr, ptr %t.addr, align 8
  invoke void @_Z25log_Z3_simplifier_dec_refP11_Z3_contextP14_Z3_simplifier(ptr noundef %0, ptr noundef %1)
          to label %invoke.cont3 unwind label %lpad1

invoke.cont3:                                     ; preds = %if.then
  br label %if.end

lpad:                                             ; preds = %entry
  %2 = landingpad { ptr, i32 }
          catch ptr @_ZTI12z3_exception
  %3 = extractvalue { ptr, i32 } %2, 0
  store ptr %3, ptr %exn.slot, align 8
  %4 = extractvalue { ptr, i32 } %2, 1
  store i32 %4, ptr %ehselector.slot, align 4
  br label %catch.dispatch

lpad1:                                            ; preds = %invoke.cont5, %if.then4, %if.then, %invoke.cont
  %5 = landingpad { ptr, i32 }
          cleanup
          catch ptr @_ZTI12z3_exception
  %6 = extractvalue { ptr, i32 } %5, 0
  store ptr %6, ptr %exn.slot, align 8
  %7 = extractvalue { ptr, i32 } %5, 1
  store i32 %7, ptr %ehselector.slot, align 4
  call void @_ZN10z3_log_ctxD2Ev(ptr noundef nonnull align 1 dereferenceable(1) %_LOG_CTX) #3
  br label %catch.dispatch

catch.dispatch:                                   ; preds = %lpad1, %lpad
  %sel = load i32, ptr %ehselector.slot, align 4
  %8 = call i32 @llvm.eh.typeid.for(ptr @_ZTI12z3_exception) #3
  %matches = icmp eq i32 %sel, %8
  br i1 %matches, label %catch, label %eh.resume

catch:                                            ; preds = %catch.dispatch
  %exn = load ptr, ptr %exn.slot, align 8
  %9 = call ptr @__cxa_begin_catch(ptr %exn) #3
  store ptr %9, ptr %ex, align 8
  %10 = load ptr, ptr %c.addr, align 8
  %call11 = invoke noundef ptr @_Z4mk_cP11_Z3_context(ptr noundef %10)
          to label %invoke.cont10 unwind label %lpad9

invoke.cont10:                                    ; preds = %catch
  %11 = load ptr, ptr %ex, align 8
  invoke void @_ZN3api7context16handle_exceptionER12z3_exception(ptr noundef nonnull align 8 dereferenceable(3048) %call11, ptr noundef nonnull align 8 dereferenceable(8) %11)
          to label %invoke.cont12 unwind label %lpad9

invoke.cont12:                                    ; preds = %invoke.cont10
  call void @__cxa_end_catch()
  br label %try.cont

if.end:                                           ; preds = %invoke.cont3, %invoke.cont2
  %12 = load ptr, ptr %t.addr, align 8
  %tobool = icmp ne ptr %12, null
  br i1 %tobool, label %if.then4, label %if.end8

if.then4:                                         ; preds = %if.end
  %13 = load ptr, ptr %t.addr, align 8
  %call6 = invoke noundef ptr @_Z13to_simplifierP14_Z3_simplifier(ptr noundef %13)
          to label %invoke.cont5 unwind label %lpad1

invoke.cont5:                                     ; preds = %if.then4
  invoke void @_ZN3api6object7dec_refEv(ptr noundef nonnull align 8 dereferenceable(24) %call6)
          to label %invoke.cont7 unwind label %lpad1

invoke.cont7:                                     ; preds = %invoke.cont5
  br label %if.end8

if.end8:                                          ; preds = %invoke.cont7, %if.end
  call void @_ZN10z3_log_ctxD2Ev(ptr noundef nonnull align 1 dereferenceable(1) %_LOG_CTX) #3
  br label %try.cont

lpad9:                                            ; preds = %invoke.cont10, %catch
  %14 = landingpad { ptr, i32 }
          cleanup
  %15 = extractvalue { ptr, i32 } %14, 0
  store ptr %15, ptr %exn.slot, align 8
  %16 = extractvalue { ptr, i32 } %14, 1
  store i32 %16, ptr %ehselector.slot, align 4
  invoke void @__cxa_end_catch()
          to label %invoke.cont13 unwind label %terminate.lpad

invoke.cont13:                                    ; preds = %lpad9
  br label %eh.resume

try.cont:                                         ; preds = %if.end8, %invoke.cont12
  ret void

eh.resume:                                        ; preds = %invoke.cont13, %catch.dispatch
  %exn14 = load ptr, ptr %exn.slot, align 8
  %sel15 = load i32, ptr %ehselector.slot, align 4
  %lpad.val = insertvalue { ptr, i32 } poison, ptr %exn14, 0
  %lpad.val16 = insertvalue { ptr, i32 } %lpad.val, i32 %sel15, 1
  resume { ptr, i32 } %lpad.val16

terminate.lpad:                                   ; preds = %lpad9
  %17 = landingpad { ptr, i32 }
          catch ptr null
  %18 = extractvalue { ptr, i32 } %17, 0
  call void @__clang_call_terminate(ptr %18) #15
  unreachable
}